(dp1
S'failed'
p2
(lp3
S'9'
asS'source_names'
p4
(lp5
S'.'
asS'ids'
p6
(dp7
I1
(S'C:\\Projects\\GitHub\\Crash-db\\tests\\test_dbseeder.py'
S'tests.test_dbseeder'
p8
S'TestDbSeeder.test_etl_crash'
tp9
sI2
(S'C:\\Projects\\GitHub\\Crash-db\\tests\\test_dbseeder.py'
g8
S'TestDbSeeder.test_etl_driver'
tp10
sI3
(S'C:\\Projects\\GitHub\\Crash-db\\tests\\test_dbseeder.py'
g8
S'TestDbSeeder.test_etl_rollup'
tp11
sI4
(S'C:\\Projects\\GitHub\\Crash-db\\tests\\test_dbseeder.py'
g8
S'TestDbSeeder.test_etl_wrong_file_name'
tp12
sI5
(S'C:\\Projects\\GitHub\\Crash-db\\tests\\test_dbseeder.py'
g8
S'TestDbSeeder.test_get_files_empty_location'
tp13
sI6
(S'C:\\Projects\\GitHub\\Crash-db\\tests\\test_dbseeder.py'
g8
S'TestDbSeeder.test_get_files_raises_if_empty'
tp14
sI7
(S'C:\\Projects\\GitHub\\Crash-db\\tests\\test_dbseeder.py'
g8
S'TestDbSeeder.test_get_files_with_trailing_slashes'
tp15
sI8
(S'C:\\Projects\\GitHub\\Crash-db\\tests\\test_dbseeder.py'
g8
S'TestDbSeeder.test_get_files_without_trailing_slashes'
tp16
sI9
(S'C:\\Projects\\GitHub\\Crash-db\\tests\\test_dbseeder.py'
g8
S'TestDbSeeder.test_process'
tp17
sI10
(S'C:\\Projects\\GitHub\\Crash-db\\tests\\test_services.py'
S'tests.test_services'
p18
S'TestCaster.test_casts_values'
tp19
sI11
(S'C:\\Projects\\GitHub\\Crash-db\\tests\\test_services.py'
g18
S'TestCaster.test_date_returns_itself'
tp20
sI12
(S'C:\\Projects\\GitHub\\Crash-db\\tests\\test_services.py'
g18
S'TestCaster.test_empty_string_returns_none'
tp21
sI13
(S'C:\\Projects\\GitHub\\Crash-db\\tests\\test_services.py'
g18
S'TestCaster.test_none_always_returns_non'
tp22
sI14
(S'C:\\Projects\\GitHub\\Crash-db\\tests\\test_services.py'
g18
S'TestCaster.test_raises_on_unknown_type'
tp23
sI15
(S'C:\\Projects\\GitHub\\Crash-db\\tests\\test_services.py'
g18
S'TestCaster.test_stripping_nonstring_is_ok'
tp24
ss.